target datalayout = "e-m:e-p270:32:32-p271:32:32-p272:64:64-i64:64-i128:128-f80:128-n8:16:32:64-S128"
target triple = "x86_64-pc-linux-gnu"

%struct.lean_object = type { i32, i32 }

@l_Lean_Elab_Tactic_BVDecide_Frontend_Normalize_bv__and___lambda__5___closed__1 = internal global ptr null, align 8
@l_Lean_Elab_Tactic_BVDecide_Frontend_Normalize_bv__and___lambda__5___closed__2 = internal global ptr null, align 8

; Function Attrs: alwaysinline nounwind uwtable
define internal void @lean_dec_ref(ptr noundef %0) #0 {
  %2 = alloca ptr, align 8
  store ptr %0, ptr %2, align 8, !tbaa !4
  %3 = load ptr, ptr %2, align 8, !tbaa !4
  %4 = getelementptr inbounds nuw %struct.lean_object, ptr %3, i32 0, i32 0
  %5 = load i32, ptr %4, align 4, !tbaa !13
  %6 = icmp sgt i32 %5, 1
  %7 = zext i1 %6 to i32
  %8 = sext i32 %7 to i64
  %9 = call i64 @llvm.expect.i64(i64 %8, i64 1)
  %10 = icmp ne i64 %9, 0
  br i1 %10, label %11, label %16

11:                                               ; preds = %1
  %12 = load ptr, ptr %2, align 8, !tbaa !4
  %13 = getelementptr inbounds nuw %struct.lean_object, ptr %12, i32 0, i32 0
  %14 = load i32, ptr %13, align 4, !tbaa !13
  %15 = add i32 %14, -1
  store i32 %15, ptr %13, align 4, !tbaa !13
  br label %24

16:                                               ; preds = %1
  %17 = load ptr, ptr %2, align 8, !tbaa !4
  %18 = getelementptr inbounds nuw %struct.lean_object, ptr %17, i32 0, i32 0
  %19 = load i32, ptr %18, align 4, !tbaa !13
  %20 = icmp ne i32 %19, 0
  br i1 %20, label %21, label %23

21:                                               ; preds = %16
  %22 = load ptr, ptr %2, align 8, !tbaa !4
  call void @lean_dec_ref_cold(ptr noundef %22)
  br label %23

23:                                               ; preds = %21, %16
  br label %24

24:                                               ; preds = %23, %11
  ret void
}

; Function Attrs: alwaysinline nounwind uwtable
define internal zeroext i1 @lean_is_scalar(ptr noundef %0) #0 {
  %2 = alloca ptr, align 8
  store ptr %0, ptr %2, align 8, !tbaa !4
  %3 = load ptr, ptr %2, align 8, !tbaa !4
  %4 = ptrtoint ptr %3 to i64
  %5 = and i64 %4, 1
  %6 = icmp eq i64 %5, 1
  ret i1 %6
}

; Function Attrs: inlinehint nounwind uwtable
define internal ptr @lean_box(i64 noundef %0) #4 {
  %2 = alloca i64, align 8
  store i64 %0, ptr %2, align 8, !tbaa !8
  %3 = load i64, ptr %2, align 8, !tbaa !8
  %4 = shl i64 %3, 1
  %5 = or i64 %4, 1
  %6 = inttoptr i64 %5 to ptr
  ret ptr %6
}

; Function Attrs: alwaysinline nounwind uwtable
define internal void @lean_dec(ptr noundef %0) #0 {
  %2 = alloca ptr, align 8
  store ptr %0, ptr %2, align 8, !tbaa !4
  %3 = load ptr, ptr %2, align 8, !tbaa !4
  %4 = call zeroext i1 @lean_is_scalar(ptr noundef %3)
  br i1 %4, label %7, label %5

5:                                                ; preds = %1
  %6 = load ptr, ptr %2, align 8, !tbaa !4
  call void @lean_dec_ref(ptr noundef %6)
  br label %7

7:                                                ; preds = %5, %1
  ret void
}

; Function Attrs: nounwind uwtable
define ptr @l_Lean_Elab_Tactic_BVDecide_Frontend_Normalize_shiftRight__self___lambda__3(ptr noundef %0, ptr noundef %1, ptr noundef %2, ptr noundef %3, ptr noundef %4, ptr noundef %5, ptr noundef %6, ptr noundef %7, ptr noundef %8, ptr noundef %9, ptr noundef %10) #1 {
  %12 = alloca ptr, align 8
  %13 = alloca ptr, align 8
  %14 = alloca ptr, align 8
  %15 = alloca ptr, align 8
  %16 = alloca ptr, align 8
  %17 = alloca ptr, align 8
  %18 = alloca ptr, align 8
  %19 = alloca ptr, align 8
  %20 = alloca ptr, align 8
  %21 = alloca ptr, align 8
  %22 = alloca ptr, align 8
  %23 = alloca ptr, align 8
  %24 = alloca ptr, align 8
  %25 = alloca ptr, align 8
  %26 = alloca i8, align 1
  %27 = alloca ptr, align 8
  %28 = alloca ptr, align 8
  %29 = alloca i32, align 4
  %30 = alloca ptr, align 8
  %31 = alloca ptr, align 8
  %32 = alloca ptr, align 8
  %33 = alloca i8, align 1
  %34 = alloca ptr, align 8
  %35 = alloca ptr, align 8
  %36 = alloca ptr, align 8
  store ptr %0, ptr %13, align 8, !tbaa !4
  store ptr %1, ptr %14, align 8, !tbaa !4
  store ptr %2, ptr %15, align 8, !tbaa !4
  store ptr %3, ptr %16, align 8, !tbaa !4
  store ptr %4, ptr %17, align 8, !tbaa !4
  store ptr %5, ptr %18, align 8, !tbaa !4
  store ptr %6, ptr %19, align 8, !tbaa !4
  store ptr %7, ptr %20, align 8, !tbaa !4
  store ptr %8, ptr %21, align 8, !tbaa !4
  store ptr %9, ptr %22, align 8, !tbaa !4
  store ptr %10, ptr %23, align 8, !tbaa !4
  br label %37

37:                                               ; preds = %11
  call void @llvm.lifetime.start.p0(i64 8, ptr %24) #7
  call void @llvm.lifetime.start.p0(i64 8, ptr %25) #7
  call void @llvm.lifetime.start.p0(i64 1, ptr %26) #7
  %38 = load ptr, ptr @l_Lean_Elab_Tactic_BVDecide_Frontend_Normalize_bv__and___lambda__5___closed__1, align 8, !tbaa !4
  store ptr %38, ptr %24, align 8, !tbaa !4
  %39 = load ptr, ptr %13, align 8, !tbaa !4
  %40 = call ptr @l_Lean_Expr_cleanupAnnotations(ptr noundef %39)
  store ptr %40, ptr %25, align 8, !tbaa !4
  %41 = load ptr, ptr %25, align 8, !tbaa !4
  %42 = call zeroext i8 @l_Lean_Expr_isApp(ptr noundef %41)
  store i8 %42, ptr %26, align 1, !tbaa !10
  %43 = load i8, ptr %26, align 1, !tbaa !10
  %44 = zext i8 %43 to i32
  %45 = icmp eq i32 %44, 0
  br i1 %45, label %46, label %62

46:                                               ; preds = %37
  call void @llvm.lifetime.start.p0(i64 8, ptr %27) #7
  call void @llvm.lifetime.start.p0(i64 8, ptr %28) #7
  %47 = load ptr, ptr %25, align 8, !tbaa !4
  call void @lean_dec(ptr noundef %47)
  %48 = load ptr, ptr %14, align 8, !tbaa !4
  call void @lean_dec(ptr noundef %48)
  %49 = call ptr @lean_box(i64 noundef 0)
  store ptr %49, ptr %27, align 8, !tbaa !4
  %50 = load ptr, ptr %24, align 8, !tbaa !4
  %51 = load ptr, ptr %27, align 8, !tbaa !4
  %52 = load ptr, ptr %16, align 8, !tbaa !4
  %53 = load ptr, ptr %17, align 8, !tbaa !4
  %54 = load ptr, ptr %18, align 8, !tbaa !4
  %55 = load ptr, ptr %19, align 8, !tbaa !4
  %56 = load ptr, ptr %20, align 8, !tbaa !4
  %57 = load ptr, ptr %21, align 8, !tbaa !4
  %58 = load ptr, ptr %22, align 8, !tbaa !4
  %59 = load ptr, ptr %23, align 8, !tbaa !4
  %60 = call ptr @lean_apply_9(ptr noundef %50, ptr noundef %51, ptr noundef %52, ptr noundef %53, ptr noundef %54, ptr noundef %55, ptr noundef %56, ptr noundef %57, ptr noundef %58, ptr noundef %59)
  store ptr %60, ptr %28, align 8, !tbaa !4
  %61 = load ptr, ptr %28, align 8, !tbaa !4
  store ptr %61, ptr %12, align 8
  store i32 1, ptr %29, align 4
  call void @llvm.lifetime.end.p0(i64 8, ptr %28) #7
  call void @llvm.lifetime.end.p0(i64 8, ptr %27) #7
  br label %111

62:                                               ; preds = %37
  call void @llvm.lifetime.start.p0(i64 8, ptr %30) #7
  call void @llvm.lifetime.start.p0(i64 8, ptr %31) #7
  call void @llvm.lifetime.start.p0(i64 8, ptr %32) #7
  call void @llvm.lifetime.start.p0(i64 1, ptr %33) #7
  %63 = load ptr, ptr %25, align 8, !tbaa !4
  %64 = call ptr @lean_box(i64 noundef 0)
  %65 = call ptr @l_Lean_Expr_appArg(ptr noundef %63, ptr noundef %64)
  store ptr %65, ptr %30, align 8, !tbaa !4
  %66 = load ptr, ptr %25, align 8, !tbaa !4
  %67 = call ptr @lean_box(i64 noundef 0)
  %68 = call ptr @l_Lean_Expr_appFnCleanup(ptr noundef %66, ptr noundef %67)
  store ptr %68, ptr %31, align 8, !tbaa !4
  %69 = load ptr, ptr @l_Lean_Elab_Tactic_BVDecide_Frontend_Normalize_bv__and___lambda__5___closed__2, align 8, !tbaa !4
  store ptr %69, ptr %32, align 8, !tbaa !4
  %70 = load ptr, ptr %31, align 8, !tbaa !4
  %71 = load ptr, ptr %32, align 8, !tbaa !4
  %72 = call zeroext i8 @l_Lean_Expr_isConstOf(ptr noundef %70, ptr noundef %71)
  store i8 %72, ptr %33, align 1, !tbaa !10
  %73 = load ptr, ptr %31, align 8, !tbaa !4
  call void @lean_dec(ptr noundef %73)
  %74 = load i8, ptr %33, align 1, !tbaa !10
  %75 = zext i8 %74 to i32
  %76 = icmp eq i32 %75, 0
  br i1 %76, label %77, label %93

77:                                               ; preds = %62
  call void @llvm.lifetime.start.p0(i64 8, ptr %34) #7
  call void @llvm.lifetime.start.p0(i64 8, ptr %35) #7
  %78 = load ptr, ptr %30, align 8, !tbaa !4
  call void @lean_dec(ptr noundef %78)
  %79 = load ptr, ptr %14, align 8, !tbaa !4
  call void @lean_dec(ptr noundef %79)
  %80 = call ptr @lean_box(i64 noundef 0)
  store ptr %80, ptr %34, align 8, !tbaa !4
  %81 = load ptr, ptr %24, align 8, !tbaa !4
  %82 = load ptr, ptr %34, align 8, !tbaa !4
  %83 = load ptr, ptr %16, align 8, !tbaa !4
  %84 = load ptr, ptr %17, align 8, !tbaa !4
  %85 = load ptr, ptr %18, align 8, !tbaa !4
  %86 = load ptr, ptr %19, align 8, !tbaa !4
  %87 = load ptr, ptr %20, align 8, !tbaa !4
  %88 = load ptr, ptr %21, align 8, !tbaa !4
  %89 = load ptr, ptr %22, align 8, !tbaa !4
  %90 = load ptr, ptr %23, align 8, !tbaa !4
  %91 = call ptr @lean_apply_9(ptr noundef %81, ptr noundef %82, ptr noundef %83, ptr noundef %84, ptr noundef %85, ptr noundef %86, ptr noundef %87, ptr noundef %88, ptr noundef %89, ptr noundef %90)
  store ptr %91, ptr %35, align 8, !tbaa !4
  %92 = load ptr, ptr %35, align 8, !tbaa !4
  store ptr %92, ptr %12, align 8
  store i32 1, ptr %29, align 4
  call void @llvm.lifetime.end.p0(i64 8, ptr %35) #7
  call void @llvm.lifetime.end.p0(i64 8, ptr %34) #7
  br label %110

93:                                               ; preds = %62
  call void @llvm.lifetime.start.p0(i64 8, ptr %36) #7
  %94 = load ptr, ptr %14, align 8, !tbaa !4
  %95 = load ptr, ptr %15, align 8, !tbaa !4
  %96 = load ptr, ptr %30, align 8, !tbaa !4
  %97 = load ptr, ptr %16, align 8, !tbaa !4
  %98 = load ptr, ptr %17, align 8, !tbaa !4
  %99 = load ptr, ptr %18, align 8, !tbaa !4
  %100 = load ptr, ptr %19, align 8, !tbaa !4
  %101 = load ptr, ptr %20, align 8, !tbaa !4
  %102 = load ptr, ptr %21, align 8, !tbaa !4
  %103 = load ptr, ptr %22, align 8, !tbaa !4
  %104 = load ptr, ptr %23, align 8, !tbaa !4
  %105 = call ptr @l_Lean_Elab_Tactic_BVDecide_Frontend_Normalize_shiftRight__self___lambda__2(ptr noundef %94, ptr noundef %95, ptr noundef %96, ptr noundef %97, ptr noundef %98, ptr noundef %99, ptr noundef %100, ptr noundef %101, ptr noundef %102, ptr noundef %103, ptr noundef %104)
  store ptr %105, ptr %36, align 8, !tbaa !4
  %106 = load ptr, ptr %18, align 8, !tbaa !4
  call void @lean_dec(ptr noundef %106)
  %107 = load ptr, ptr %17, align 8, !tbaa !4
  call void @lean_dec(ptr noundef %107)
  %108 = load ptr, ptr %16, align 8, !tbaa !4
  call void @lean_dec(ptr noundef %108)
  %109 = load ptr, ptr %36, align 8, !tbaa !4
  store ptr %109, ptr %12, align 8
  store i32 1, ptr %29, align 4
  call void @llvm.lifetime.end.p0(i64 8, ptr %36) #7
  br label %110

110:                                              ; preds = %93, %77
  call void @llvm.lifetime.end.p0(i64 1, ptr %33) #7
  call void @llvm.lifetime.end.p0(i64 8, ptr %32) #7
  call void @llvm.lifetime.end.p0(i64 8, ptr %31) #7
  call void @llvm.lifetime.end.p0(i64 8, ptr %30) #7
  br label %111

111:                                              ; preds = %110, %46
  call void @llvm.lifetime.end.p0(i64 1, ptr %26) #7
  call void @llvm.lifetime.end.p0(i64 8, ptr %25) #7
  call void @llvm.lifetime.end.p0(i64 8, ptr %24) #7
  %112 = load ptr, ptr %12, align 8
  ret ptr %112
}