; Function Attrs: nounwind uwtable
define ptr @l_Lean_Elab_Tactic_BVDecide_Frontend_Normalize_shiftRight__self___lambda__3(ptr noundef %0, ptr noundef %1, ptr noundef %2, ptr noundef %3, ptr noundef %4, ptr noundef %5, ptr noundef %6, ptr noundef %7, ptr noundef %8, ptr noundef %9, ptr noundef %10) local_unnamed_addr #0 {
  %12 = load ptr, ptr @l_Lean_Elab_Tactic_BVDecide_Frontend_Normalize_bv__and___lambda__5___closed__1, align 8, !tbaa !4
  %13 = tail call ptr @l_Lean_Expr_cleanupAnnotations(ptr noundef %0) #5
  %14 = tail call zeroext i8 @l_Lean_Expr_isApp(ptr noundef %13) #5
  %15 = icmp eq i8 %14, 0
  br i1 %15, label %16, label %36

16:                                               ; preds = %11
  %17 = ptrtoint ptr %13 to i64
  %18 = and i64 %17, 1
  %.not76 = icmp eq i64 %18, 0
  br i1 %.not76, label %19, label %lean_dec.exit56

19:                                               ; preds = %16
  %20 = load i32, ptr %13, align 4, !tbaa !8
  %21 = icmp sgt i32 %20, 1
  br i1 %21, label %22, label %24, !prof !11

22:                                               ; preds = %19
  %23 = add nsw i32 %20, -1
  store i32 %23, ptr %13, align 4, !tbaa !8
  br label %lean_dec.exit56

24:                                               ; preds = %19
  %.not.i = icmp eq i32 %20, 0
  br i1 %.not.i, label %lean_dec.exit56, label %25

25:                                               ; preds = %24
  tail call void @lean_dec_ref_cold(ptr noundef nonnull %13) #5
  br label %lean_dec.exit56

lean_dec.exit56:                                  ; preds = %25, %24, %22, %16
  %26 = ptrtoint ptr %1 to i64
  %27 = and i64 %26, 1
  %.not77 = icmp eq i64 %27, 0
  br i1 %.not77, label %28, label %lean_dec.exit55

28:                                               ; preds = %lean_dec.exit56
  %29 = load i32, ptr %1, align 4, !tbaa !8
  %30 = icmp sgt i32 %29, 1
  br i1 %30, label %31, label %33, !prof !11

31:                                               ; preds = %28
  %32 = add nsw i32 %29, -1
  store i32 %32, ptr %1, align 4, !tbaa !8
  br label %lean_dec.exit55

33:                                               ; preds = %28
  %.not.i57 = icmp eq i32 %29, 0
  br i1 %.not.i57, label %lean_dec.exit55, label %34

34:                                               ; preds = %33
  tail call void @lean_dec_ref_cold(ptr noundef nonnull %1) #5
  br label %lean_dec.exit55

lean_dec.exit55:                                  ; preds = %34, %33, %31, %lean_dec.exit56
  %35 = tail call ptr @lean_apply_9(ptr noundef %12, ptr noundef nonnull inttoptr (i64 1 to ptr), ptr noundef %3, ptr noundef %4, ptr noundef %5, ptr noundef %6, ptr noundef %7, ptr noundef %8, ptr noundef %9, ptr noundef %10) #5
  br label %lean_dec.exit

36:                                               ; preds = %11
  %37 = tail call ptr @l_Lean_Expr_appArg(ptr noundef %13, ptr noundef nonnull inttoptr (i64 1 to ptr)) #5
  %38 = tail call ptr @l_Lean_Expr_appFnCleanup(ptr noundef %13, ptr noundef nonnull inttoptr (i64 1 to ptr)) #5
  %39 = load ptr, ptr @l_Lean_Elab_Tactic_BVDecide_Frontend_Normalize_bv__and___lambda__5___closed__2, align 8, !tbaa !4
  %40 = tail call zeroext i8 @l_Lean_Expr_isConstOf(ptr noundef %38, ptr noundef %39) #5
  %41 = ptrtoint ptr %38 to i64
  %42 = and i64 %41, 1
  %.not = icmp eq i64 %42, 0
  br i1 %.not, label %43, label %lean_dec.exit54

43:                                               ; preds = %36
  %44 = load i32, ptr %38, align 4, !tbaa !8
  %45 = icmp sgt i32 %44, 1
  br i1 %45, label %46, label %48, !prof !11

46:                                               ; preds = %43
  %47 = add nsw i32 %44, -1
  store i32 %47, ptr %38, align 4, !tbaa !8
  br label %lean_dec.exit54

48:                                               ; preds = %43
  %.not.i59 = icmp eq i32 %44, 0
  br i1 %.not.i59, label %lean_dec.exit54, label %49

49:                                               ; preds = %48
  tail call void @lean_dec_ref_cold(ptr noundef nonnull %38) #5
  br label %lean_dec.exit54

lean_dec.exit54:                                  ; preds = %49, %48, %46, %36
  %50 = icmp eq i8 %40, 0
  br i1 %50, label %51, label %71

51:                                               ; preds = %lean_dec.exit54
  %52 = ptrtoint ptr %37 to i64
  %53 = and i64 %52, 1
  %.not74 = icmp eq i64 %53, 0
  br i1 %.not74, label %54, label %lean_dec.exit53

54:                                               ; preds = %51
  %55 = load i32, ptr %37, align 4, !tbaa !8
  %56 = icmp sgt i32 %55, 1
  br i1 %56, label %57, label %59, !prof !11

57:                                               ; preds = %54
  %58 = add nsw i32 %55, -1
  store i32 %58, ptr %37, align 4, !tbaa !8
  br label %lean_dec.exit53

59:                                               ; preds = %54
  %.not.i61 = icmp eq i32 %55, 0
  br i1 %.not.i61, label %lean_dec.exit53, label %60

60:                                               ; preds = %59
  tail call void @lean_dec_ref_cold(ptr noundef nonnull %37) #5
  br label %lean_dec.exit53

lean_dec.exit53:                                  ; preds = %60, %59, %57, %51
  %61 = ptrtoint ptr %1 to i64
  %62 = and i64 %61, 1
  %.not75 = icmp eq i64 %62, 0
  br i1 %.not75, label %63, label %lean_dec.exit52

63:                                               ; preds = %lean_dec.exit53
  %64 = load i32, ptr %1, align 4, !tbaa !8
  %65 = icmp sgt i32 %64, 1
  br i1 %65, label %66, label %68, !prof !11

66:                                               ; preds = %63
  %67 = add nsw i32 %64, -1
  store i32 %67, ptr %1, align 4, !tbaa !8
  br label %lean_dec.exit52

68:                                               ; preds = %63
  %.not.i63 = icmp eq i32 %64, 0
  br i1 %.not.i63, label %lean_dec.exit52, label %69

69:                                               ; preds = %68
  tail call void @lean_dec_ref_cold(ptr noundef nonnull %1) #5
  br label %lean_dec.exit52

lean_dec.exit52:                                  ; preds = %69, %68, %66, %lean_dec.exit53
  %70 = tail call ptr @lean_apply_9(ptr noundef %12, ptr noundef nonnull inttoptr (i64 1 to ptr), ptr noundef %3, ptr noundef %4, ptr noundef %5, ptr noundef %6, ptr noundef %7, ptr noundef %8, ptr noundef %9, ptr noundef %10) #5
  br label %lean_dec.exit

71:                                               ; preds = %lean_dec.exit54
  %72 = tail call ptr @l_Lean_Elab_Tactic_BVDecide_Frontend_Normalize_shiftRight__self___lambda__2(ptr noundef %1, ptr noundef %2, ptr noundef %37, ptr poison, ptr poison, ptr poison, ptr noundef %6, ptr noundef %7, ptr noundef %8, ptr noundef %9, ptr noundef %10)
  %73 = ptrtoint ptr %5 to i64
  %74 = and i64 %73, 1
  %.not71 = icmp eq i64 %74, 0
  br i1 %.not71, label %75, label %lean_dec.exit51

75:                                               ; preds = %71
  %76 = load i32, ptr %5, align 4, !tbaa !8
  %77 = icmp sgt i32 %76, 1
  br i1 %77, label %78, label %80, !prof !11

78:                                               ; preds = %75
  %79 = add nsw i32 %76, -1
  store i32 %79, ptr %5, align 4, !tbaa !8
  br label %lean_dec.exit51

80:                                               ; preds = %75
  %.not.i65 = icmp eq i32 %76, 0
  br i1 %.not.i65, label %lean_dec.exit51, label %81

81:                                               ; preds = %80
  tail call void @lean_dec_ref_cold(ptr noundef nonnull %5) #5
  br label %lean_dec.exit51

lean_dec.exit51:                                  ; preds = %81, %80, %78, %71
  %82 = ptrtoint ptr %4 to i64
  %83 = and i64 %82, 1
  %.not72 = icmp eq i64 %83, 0
  br i1 %.not72, label %84, label %lean_dec.exit50

84:                                               ; preds = %lean_dec.exit51
  %85 = load i32, ptr %4, align 4, !tbaa !8
  %86 = icmp sgt i32 %85, 1
  br i1 %86, label %87, label %89, !prof !11

87:                                               ; preds = %84
  %88 = add nsw i32 %85, -1
  store i32 %88, ptr %4, align 4, !tbaa !8
  br label %lean_dec.exit50

89:                                               ; preds = %84
  %.not.i67 = icmp eq i32 %85, 0
  br i1 %.not.i67, label %lean_dec.exit50, label %90

90:                                               ; preds = %89
  tail call void @lean_dec_ref_cold(ptr noundef nonnull %4) #5
  br label %lean_dec.exit50

lean_dec.exit50:                                  ; preds = %90, %89, %87, %lean_dec.exit51
  %91 = ptrtoint ptr %3 to i64
  %92 = and i64 %91, 1
  %.not73 = icmp eq i64 %92, 0
  br i1 %.not73, label %93, label %lean_dec.exit

93:                                               ; preds = %lean_dec.exit50
  %94 = load i32, ptr %3, align 4, !tbaa !8
  %95 = icmp sgt i32 %94, 1
  br i1 %95, label %96, label %98, !prof !11

96:                                               ; preds = %93
  %97 = add nsw i32 %94, -1
  store i32 %97, ptr %3, align 4, !tbaa !8
  br label %lean_dec.exit

98:                                               ; preds = %93
  %.not.i69 = icmp eq i32 %94, 0
  br i1 %.not.i69, label %lean_dec.exit, label %99

99:                                               ; preds = %98
  tail call void @lean_dec_ref_cold(ptr noundef nonnull %3) #5
  br label %lean_dec.exit

lean_dec.exit:                                    ; preds = %lean_dec.exit50, %96, %98, %99, %lean_dec.exit52, %lean_dec.exit55
  %.0 = phi ptr [ %35, %lean_dec.exit55 ], [ %70, %lean_dec.exit52 ], [ %72, %99 ], [ %72, %98 ], [ %72, %96 ], [ %72, %lean_dec.exit50 ]
  ret ptr %.0
}